; Function Attrs: nofree norecurse nosync nounwind memory(argmem: readwrite) uwtable
define internal void @intra_pred_lp_top(ptr noundef writeonly captures(none) %0, ptr noundef readonly captures(none) %1, ptr readnone captures(none) %2, i64 noundef %3) #9 {
  br label %.preheader

.preheader:                                       ; preds = %4, %24
  %indvars.iv17 = phi i64 [ 0, %4 ], [ %indvars.iv.next18, %24 ]
  %5 = mul nsw i64 %3, %indvars.iv17
  %6 = getelementptr i8, ptr %0, i64 %5
  br label %7

7:                                                ; preds = %.preheader, %7
  %indvars.iv = phi i64 [ 0, %.preheader ], [ %indvars.iv.next, %7 ]
  %indvars.iv.next = add nuw nsw i64 %indvars.iv, 1
  %8 = getelementptr inbounds nuw i8, ptr %1, i64 %indvars.iv
  %9 = load i8, ptr %8, align 1, !tbaa !24
  %10 = zext i8 %9 to i16
  %11 = getelementptr inbounds nuw i8, ptr %1, i64 %indvars.iv.next
  %12 = load i8, ptr %11, align 1, !tbaa !24
  %13 = zext i8 %12 to i16
  %14 = shl nuw nsw i16 %13, 1
  %15 = getelementptr inbounds nuw i8, ptr %8, i64 2
  %16 = load i8, ptr %15, align 1, !tbaa !24
  %17 = zext i8 %16 to i16
  %18 = add nuw nsw i16 %10, 2
  %19 = add nuw nsw i16 %18, %14
  %20 = add nuw nsw i16 %19, %17
  %21 = lshr i16 %20, 2
  %22 = trunc nuw i16 %21 to i8
  %23 = getelementptr i8, ptr %6, i64 %indvars.iv
  store i8 %22, ptr %23, align 1, !tbaa !24
  %exitcond.not = icmp eq i64 %indvars.iv.next, 8
  br i1 %exitcond.not, label %24, label %7, !llvm.loop !106

24:                                               ; preds = %7
  %indvars.iv.next18 = add nuw nsw i64 %indvars.iv17, 1
  %exitcond20.not = icmp eq i64 %indvars.iv.next18, 8
  br i1 %exitcond20.not, label %25, label %.preheader, !llvm.loop !107

25:                                               ; preds = %24
  ret void
}